; ModuleID = 'source-C-CXX/18/581.c'
source_filename = "source-C-CXX/18/581.c"
target datalayout = "e-m:e-p270:32:32-p271:32:32-p272:64:64-i64:64-f80:128-n8:16:32:64-S128"
target triple = "x86_64-pc-linux-gnu"

@.str = private unnamed_addr constant [2 x i8] c"\0A\00", align 1
@.str.1 = private unnamed_addr constant [3 x i8] c"%s\00", align 1
@.str.2 = private unnamed_addr constant [4 x i8] c" %s\00", align 1

; Function Attrs: nounwind sspstrong uwtable
define dso_local void @main() local_unnamed_addr #0 {
  %1 = alloca [100 x [100 x i8]], align 16
  %2 = alloca [100 x i8], align 16
  %3 = alloca [100 x i8], align 16
  %4 = alloca [100 x i8], align 16
  %5 = alloca [100 x i32], align 16
  %6 = getelementptr inbounds [100 x [100 x i8]], [100 x [100 x i8]]* %1, i64 0, i64 0, i64 0
  call void @llvm.lifetime.start.p0i8(i64 10000, i8* nonnull %6) #7
  call void @llvm.memset.p0i8.i64(i8* noundef nonnull align 16 dereferenceable(10000) %6, i8 0, i64 10000, i1 false)
  %7 = getelementptr inbounds [100 x i8], [100 x i8]* %2, i64 0, i64 0
  call void @llvm.lifetime.start.p0i8(i64 100, i8* nonnull %7) #7
  %8 = getelementptr inbounds [100 x i8], [100 x i8]* %3, i64 0, i64 0
  call void @llvm.lifetime.start.p0i8(i64 100, i8* nonnull %8) #7
  %9 = getelementptr inbounds [100 x i8], [100 x i8]* %4, i64 0, i64 0
  call void @llvm.lifetime.start.p0i8(i64 100, i8* nonnull %9) #7
  %10 = bitcast [100 x i32]* %5 to i8*
  call void @llvm.lifetime.start.p0i8(i64 400, i8* nonnull %10) #7
  call void @llvm.memset.p0i8.i64(i8* noundef nonnull align 16 dereferenceable(400) %10, i8 0, i64 400, i1 false)
  %11 = call i32 (i8*, ...) bitcast (i32 (...)* @gets to i32 (i8*, ...)*)(i8* nonnull %7) #7
  %12 = call i32 (i8*, ...) @__isoc99_scanf(i8* getelementptr inbounds ([2 x i8], [2 x i8]* @.str, i64 0, i64 0))
  %13 = call i32 (i8*, ...) bitcast (i32 (...)* @gets to i32 (i8*, ...)*)(i8* nonnull %8) #7
  %14 = call i32 (i8*, ...) @__isoc99_scanf(i8* getelementptr inbounds ([2 x i8], [2 x i8]* @.str, i64 0, i64 0))
  %15 = call i32 (i8*, ...) bitcast (i32 (...)* @gets to i32 (i8*, ...)*)(i8* nonnull %9) #7
  %16 = call i64 @strlen(i8* noundef nonnull %7) #8
  %17 = trunc i64 %16 to i32
  %18 = call i64 @strlen(i8* noundef nonnull %9) #8
  %19 = trunc i64 %18 to i32
  %20 = icmp sgt i32 %17, 0
  br i1 %20, label %21, label %27

21:                                               ; preds = %0
  %22 = and i64 %16, 4294967295
  br label %33

23:                                               ; preds = %50
  %24 = icmp slt i32 %51, 0
  br i1 %24, label %25, label %27

25:                                               ; preds = %23
  %26 = call i32 (i8*, ...) @printf(i8* nonnull dereferenceable(1) getelementptr inbounds ([3 x i8], [3 x i8]* @.str.1, i64 0, i64 0), i8* nonnull %6)
  br label %81

27:                                               ; preds = %0, %23
  %28 = phi i32 [ %51, %23 ], [ 0, %0 ]
  %29 = shl i64 %18, 32
  %30 = ashr exact i64 %29, 32
  %31 = add nuw i32 %28, 1
  %32 = zext i32 %31 to i64
  br label %54

33:                                               ; preds = %21, %50
  %34 = phi i64 [ 0, %21 ], [ %52, %50 ]
  %35 = phi i32 [ 0, %21 ], [ %51, %50 ]
  %36 = getelementptr inbounds [100 x i8], [100 x i8]* %2, i64 0, i64 %34
  %37 = load i8, i8* %36, align 1, !tbaa !5
  %38 = icmp eq i8 %37, 32
  br i1 %38, label %39, label %43

39:                                               ; preds = %33
  %40 = add nsw i32 %35, 1
  %41 = sext i32 %40 to i64
  %42 = getelementptr inbounds [100 x i32], [100 x i32]* %5, i64 0, i64 %41
  store i32 0, i32* %42, align 4, !tbaa !8
  br label %50

43:                                               ; preds = %33
  %44 = sext i32 %35 to i64
  %45 = getelementptr inbounds [100 x i32], [100 x i32]* %5, i64 0, i64 %44
  %46 = load i32, i32* %45, align 4, !tbaa !8
  %47 = sext i32 %46 to i64
  %48 = getelementptr inbounds [100 x [100 x i8]], [100 x [100 x i8]]* %1, i64 0, i64 %44, i64 %47
  store i8 %37, i8* %48, align 1, !tbaa !5
  %49 = add nsw i32 %46, 1
  store i32 %49, i32* %45, align 4, !tbaa !8
  br label %50

50:                                               ; preds = %39, %43
  %51 = phi i32 [ %40, %39 ], [ %35, %43 ]
  %52 = add nuw nsw i64 %34, 1
  %53 = icmp eq i64 %52, %22
  br i1 %53, label %23, label %33, !llvm.loop !10

54:                                               ; preds = %27, %66
  %55 = phi i64 [ 0, %27 ], [ %67, %66 ]
  %56 = getelementptr inbounds [100 x [100 x i8]], [100 x [100 x i8]]* %1, i64 0, i64 %55, i64 0
  %57 = call i32 @strcmp(i8* noundef nonnull %56, i8* noundef nonnull %8) #8
  %58 = icmp eq i32 %57, 0
  br i1 %58, label %59, label %66

59:                                               ; preds = %54
  %60 = getelementptr inbounds [100 x i32], [100 x i32]* %5, i64 0, i64 %55
  %61 = load i32, i32* %60, align 4, !tbaa !8
  %62 = icmp slt i32 %61, %19
  %63 = sext i32 %61 to i64
  %64 = select i1 %62, i64 %30, i64 %63
  call void @llvm.memset.p0i8.i64(i8* nonnull align 4 %56, i8 0, i64 %64, i1 false)
  %65 = call i8* @strcpy(i8* noundef nonnull %56, i8* noundef nonnull %9) #7
  br label %66

66:                                               ; preds = %59, %54
  %67 = add nuw nsw i64 %55, 1
  %68 = icmp eq i64 %67, %32
  br i1 %68, label %69, label %54, !llvm.loop !12

69:                                               ; preds = %66
  %70 = call i32 (i8*, ...) @printf(i8* nonnull dereferenceable(1) getelementptr inbounds ([3 x i8], [3 x i8]* @.str.1, i64 0, i64 0), i8* nonnull %6)
  %71 = icmp slt i32 %28, 1
  br i1 %71, label %81, label %72

72:                                               ; preds = %69
  %73 = add nuw i32 %28, 1
  %74 = zext i32 %73 to i64
  br label %75

75:                                               ; preds = %72, %75
  %76 = phi i64 [ 1, %72 ], [ %79, %75 ]
  %77 = getelementptr inbounds [100 x [100 x i8]], [100 x [100 x i8]]* %1, i64 0, i64 %76, i64 0
  %78 = call i32 (i8*, ...) @printf(i8* nonnull dereferenceable(1) getelementptr inbounds ([4 x i8], [4 x i8]* @.str.2, i64 0, i64 0), i8* nonnull %77)
  %79 = add nuw nsw i64 %76, 1
  %80 = icmp eq i64 %79, %74
  br i1 %80, label %81, label %75, !llvm.loop !13

81:                                               ; preds = %75, %25, %69
  call void @llvm.lifetime.end.p0i8(i64 400, i8* nonnull %10) #7
  call void @llvm.lifetime.end.p0i8(i64 100, i8* nonnull %9) #7
  call void @llvm.lifetime.end.p0i8(i64 100, i8* nonnull %8) #7
  call void @llvm.lifetime.end.p0i8(i64 100, i8* nonnull %7) #7
  call void @llvm.lifetime.end.p0i8(i64 10000, i8* nonnull %6) #7
  ret void
}

; Function Attrs: argmemonly mustprogress nofree nosync nounwind willreturn
declare void @llvm.lifetime.start.p0i8(i64 immarg, i8* nocapture) #1

; Function Attrs: argmemonly mustprogress nofree nounwind willreturn writeonly
declare void @llvm.memset.p0i8.i64(i8* nocapture writeonly, i8, i64, i1 immarg) #2

declare i32 @gets(...) local_unnamed_addr #3

; Function Attrs: nofree nounwind
declare noundef i32 @__isoc99_scanf(i8* nocapture noundef readonly, ...) local_unnamed_addr #4

; Function Attrs: argmemonly mustprogress nofree nounwind readonly willreturn
declare i64 @strlen(i8* nocapture) local_unnamed_addr #5

; Function Attrs: argmemonly mustprogress nofree nounwind readonly willreturn
declare i32 @strcmp(i8* nocapture, i8* nocapture) local_unnamed_addr #5

; Function Attrs: argmemonly mustprogress nofree nounwind willreturn
declare i8* @strcpy(i8* noalias returned writeonly, i8* noalias nocapture readonly) local_unnamed_addr #6

; Function Attrs: nofree nounwind
declare noundef i32 @printf(i8* nocapture noundef readonly, ...) local_unnamed_addr #4

; Function Attrs: argmemonly mustprogress nofree nosync nounwind willreturn
declare void @llvm.lifetime.end.p0i8(i64 immarg, i8* nocapture) #1


!llvm.module.flags = !{!0, !1, !2, !3}
!llvm.ident = !{!4}

!0 = !{i32 1, !"wchar_size", i32 4}
!1 = !{i32 7, !"PIC Level", i32 2}
!2 = !{i32 7, !"PIE Level", i32 2}
!3 = !{i32 7, !"uwtable", i32 1}
!4 = !{!"clang version 13.0.0"}
!5 = !{!6, !6, i64 0}
!6 = !{!"omnipotent char", !7, i64 0}
!7 = !{!"Simple C/C++ TBAA"}
!8 = !{!9, !9, i64 0}
!9 = !{!"int", !6, i64 0}
!10 = distinct !{!10, !11}
!11 = !{!"llvm.loop.mustprogress"}
!12 = distinct !{!12, !11}
!13 = distinct !{!13, !11}
